ARM GAS  /var/folders/vc/p32jbmgs3k17njj5gy_2_k3w0000gn/T//ccEpzWtk.s 			page 1


   1              		.cpu cortex-m3
   2              		.eabi_attribute 20, 1
   3              		.eabi_attribute 21, 1
   4              		.eabi_attribute 23, 3
   5              		.eabi_attribute 24, 1
   6              		.eabi_attribute 25, 1
   7              		.eabi_attribute 26, 1
   8              		.eabi_attribute 30, 1
   9              		.eabi_attribute 34, 1
  10              		.eabi_attribute 18, 4
  11              		.file	"bsp_f1xx_timer.c"
  12              		.text
  13              	.Ltext0:
  14              		.cfi_sections	.debug_frame
  15              		.global	__aeabi_uldivmod
  16              		.section	.text.bsp_TimerInit,"ax",%progbits
  17              		.align	1
  18              		.global	bsp_TimerInit
  19              		.syntax unified
  20              		.thumb
  21              		.thumb_func
  22              		.fpu softvfp
  24              	bsp_TimerInit:
  25              	.LFB67:
  26              		.file 1 "drivers/bsp_f1xx_timer.c"
   1:drivers/bsp_f1xx_timer.c **** //
   2:drivers/bsp_f1xx_timer.c **** // Created by 周洋 on 2020/3/29.
   3:drivers/bsp_f1xx_timer.c **** //
   4:drivers/bsp_f1xx_timer.c **** 
   5:drivers/bsp_f1xx_timer.c **** #include "bsp_f1xx_timer.h"
   6:drivers/bsp_f1xx_timer.c **** 
   7:drivers/bsp_f1xx_timer.c **** #define TIMCLK  72
   8:drivers/bsp_f1xx_timer.c **** 
   9:drivers/bsp_f1xx_timer.c **** typedef void (*timoutfunc)(void);
  10:drivers/bsp_f1xx_timer.c **** static timoutfunc funcs[6];
  11:drivers/bsp_f1xx_timer.c **** static vu64 psc;
  12:drivers/bsp_f1xx_timer.c **** static vu64 arr;
  13:drivers/bsp_f1xx_timer.c **** u8 timirqs[] = {TIM2_IRQn,TIM3_IRQn,TIM4_IRQn,TIM5_IRQn,TIM6_IRQn,TIM7_IRQn};
  14:drivers/bsp_f1xx_timer.c **** 
  15:drivers/bsp_f1xx_timer.c **** static inline void caltimcfg(_timer *timer)
  16:drivers/bsp_f1xx_timer.c **** {
  17:drivers/bsp_f1xx_timer.c ****     psc = 0;
  18:drivers/bsp_f1xx_timer.c ****     arr = 0;
  19:drivers/bsp_f1xx_timer.c ****     u64 tim;
  20:drivers/bsp_f1xx_timer.c ****     u64 arrmax=65535;
  21:drivers/bsp_f1xx_timer.c ****     u64 timclk = TIMCLK*1000;
  22:drivers/bsp_f1xx_timer.c **** 
  23:drivers/bsp_f1xx_timer.c ****     tim = ((timer->sec * 1000) + timer->ms);
  24:drivers/bsp_f1xx_timer.c ****     while(psc<65535)
  25:drivers/bsp_f1xx_timer.c ****     {
  26:drivers/bsp_f1xx_timer.c ****         if((timclk%(psc+1))!=0)
  27:drivers/bsp_f1xx_timer.c ****             psc++;
  28:drivers/bsp_f1xx_timer.c ****         else
  29:drivers/bsp_f1xx_timer.c ****         {
  30:drivers/bsp_f1xx_timer.c ****             arr = ((timclk / (psc+1)))*tim-1;
  31:drivers/bsp_f1xx_timer.c ****             if(arr >= arrmax)
  32:drivers/bsp_f1xx_timer.c ****                 psc++;
ARM GAS  /var/folders/vc/p32jbmgs3k17njj5gy_2_k3w0000gn/T//ccEpzWtk.s 			page 2


  33:drivers/bsp_f1xx_timer.c ****             else
  34:drivers/bsp_f1xx_timer.c ****                 return;
  35:drivers/bsp_f1xx_timer.c ****         }
  36:drivers/bsp_f1xx_timer.c ****     }
  37:drivers/bsp_f1xx_timer.c **** }
  38:drivers/bsp_f1xx_timer.c **** 
  39:drivers/bsp_f1xx_timer.c **** void bsp_TimerInit(_timer *timer)
  40:drivers/bsp_f1xx_timer.c **** {
  27              		.loc 1 40 0
  28              		.cfi_startproc
  29              		@ args = 0, pretend = 0, frame = 0
  30              		@ frame_needed = 0, uses_anonymous_args = 0
  31              	.LVL0:
  32 0000 2DE9F04B 		push	{r4, r5, r6, r7, r8, r9, fp, lr}
  33              	.LCFI0:
  34              		.cfi_def_cfa_offset 32
  35              		.cfi_offset 4, -32
  36              		.cfi_offset 5, -28
  37              		.cfi_offset 6, -24
  38              		.cfi_offset 7, -20
  39              		.cfi_offset 8, -16
  40              		.cfi_offset 9, -12
  41              		.cfi_offset 11, -8
  42              		.cfi_offset 14, -4
  43 0004 8046     		mov	r8, r0
  41:drivers/bsp_f1xx_timer.c ****     u8 offset;
  42:drivers/bsp_f1xx_timer.c **** 
  43:drivers/bsp_f1xx_timer.c ****     TIM_TypeDef *cfgtim = timer->timx;
  44              		.loc 1 43 0
  45 0006 0668     		ldr	r6, [r0]
  46              	.LVL1:
  44:drivers/bsp_f1xx_timer.c ****     offset=	((((u32) timer->timx) - TIM2_BASE) / 0x400);//计算时钟位置偏移量
  47              		.loc 1 44 0
  48 0008 06F14047 		add	r7, r6, #-1073741824
  49 000c BF0A     		lsrs	r7, r7, #10
  50 000e 5FFA87F9 		uxtb	r9, r7
  51              	.LVL2:
  52              	.LBB4:
  53              	.LBB5:
  17:drivers/bsp_f1xx_timer.c ****     arr = 0;
  54              		.loc 1 17 0
  55 0012 0022     		movs	r2, #0
  56 0014 0023     		movs	r3, #0
  57 0016 4349     		ldr	r1, .L8
  58 0018 C1E90023 		strd	r2, [r1]
  18:drivers/bsp_f1xx_timer.c ****     u64 tim;
  59              		.loc 1 18 0
  60 001c 4249     		ldr	r1, .L8+4
  61 001e C1E90023 		strd	r2, [r1]
  62              	.LVL3:
  23:drivers/bsp_f1xx_timer.c ****     while(psc<65535)
  63              		.loc 1 23 0
  64 0022 0479     		ldrb	r4, [r0, #4]	@ zero_extendqisi2
  65 0024 C388     		ldrh	r3, [r0, #6]
  66 0026 4FF47A72 		mov	r2, #1000
  67 002a 02FB0434 		mla	r4, r2, r4, r3
  68 002e E517     		asrs	r5, r4, #31
ARM GAS  /var/folders/vc/p32jbmgs3k17njj5gy_2_k3w0000gn/T//ccEpzWtk.s 			page 3


  69              	.LVL4:
  70 0030 29E0     		b	.L2
  71              	.LVL5:
  72              	.L3:
  30:drivers/bsp_f1xx_timer.c ****             if(arr >= arrmax)
  73              		.loc 1 30 0
  74 0032 3C4B     		ldr	r3, .L8
  75 0034 D3E90001 		ldrd	r0, [r3]
  76 0038 421C     		adds	r2, r0, #1
  77 003a 41F10003 		adc	r3, r1, #0
  78 003e 3B48     		ldr	r0, .L8+8
  79 0040 0021     		movs	r1, #0
  80 0042 FFF7FEFF 		bl	__aeabi_uldivmod
  81              	.LVL6:
  82 0046 04FB01F3 		mul	r3, r4, r1
  83 004a 00FB0533 		mla	r3, r0, r5, r3
  84 004e A4FB00BC 		umull	fp, ip, r4, r0
  85 0052 9C44     		add	ip, ip, r3
  86 0054 1BF1FF30 		adds	r0, fp, #-1
  87 0058 4CF1FF31 		adc	r1, ip, #-1
  88 005c 324B     		ldr	r3, .L8+4
  89 005e C3E90001 		strd	r0, [r3]
  31:drivers/bsp_f1xx_timer.c ****                 psc++;
  90              		.loc 1 31 0
  91 0062 D3E90023 		ldrd	r2, [r3]
  92 0066 4FF6FE70 		movw	r0, #65534
  93 006a 0021     		movs	r1, #0
  94 006c 9942     		cmp	r1, r3
  95 006e 08BF     		it	eq
  96 0070 9042     		cmpeq	r0, r2
  97 0072 28D2     		bcs	.L5
  32:drivers/bsp_f1xx_timer.c ****             else
  98              		.loc 1 32 0
  99 0074 2B49     		ldr	r1, .L8
 100 0076 D1E900BC 		ldrd	fp, [r1]
 101 007a 1BF10102 		adds	r2, fp, #1
 102 007e 4CF10003 		adc	r3, ip, #0
 103 0082 C1E90023 		strd	r2, [r1]
 104              	.L2:
  24:drivers/bsp_f1xx_timer.c ****     {
 105              		.loc 1 24 0
 106 0086 274B     		ldr	r3, .L8
 107 0088 D3E90023 		ldrd	r2, [r3]
 108 008c 4FF6FE70 		movw	r0, #65534
 109 0090 0021     		movs	r1, #0
 110 0092 9942     		cmp	r1, r3
 111 0094 08BF     		it	eq
 112 0096 9042     		cmpeq	r0, r2
 113 0098 15D3     		bcc	.L5
  26:drivers/bsp_f1xx_timer.c ****             psc++;
 114              		.loc 1 26 0
 115 009a 224B     		ldr	r3, .L8
 116 009c D3E90001 		ldrd	r0, [r3]
 117 00a0 421C     		adds	r2, r0, #1
 118 00a2 41F10003 		adc	r3, r1, #0
 119 00a6 2148     		ldr	r0, .L8+8
 120 00a8 0021     		movs	r1, #0
ARM GAS  /var/folders/vc/p32jbmgs3k17njj5gy_2_k3w0000gn/T//ccEpzWtk.s 			page 4


 121 00aa FFF7FEFF 		bl	__aeabi_uldivmod
 122              	.LVL7:
 123 00ae 1343     		orrs	r3, r2, r3
 124 00b0 BFD0     		beq	.L3
  27:drivers/bsp_f1xx_timer.c ****         else
 125              		.loc 1 27 0
 126 00b2 1C49     		ldr	r1, .L8
 127 00b4 D1E900BC 		ldrd	fp, [r1]
 128 00b8 1BF10102 		adds	r2, fp, #1
 129 00bc 4CF10003 		adc	r3, ip, #0
 130 00c0 C1E90023 		strd	r2, [r1]
 131 00c4 DFE7     		b	.L2
 132              	.L5:
 133              	.LVL8:
 134              	.LBE5:
 135              	.LBE4:
  45:drivers/bsp_f1xx_timer.c ****     caltimcfg(timer);
  46:drivers/bsp_f1xx_timer.c **** 
  47:drivers/bsp_f1xx_timer.c ****     RCC->APB1ENR|=1<<offset;				//时钟使能
 136              		.loc 1 47 0
 137 00c6 1A4A     		ldr	r2, .L8+12
 138 00c8 D369     		ldr	r3, [r2, #28]
 139 00ca FFB2     		uxtb	r7, r7
 140 00cc 0120     		movs	r0, #1
 141 00ce 00FA07F1 		lsl	r1, r0, r7
 142 00d2 0B43     		orrs	r3, r3, r1
 143 00d4 D361     		str	r3, [r2, #28]
  48:drivers/bsp_f1xx_timer.c **** 
  49:drivers/bsp_f1xx_timer.c ****     cfgtim->ARR= arr;  				//设定计数器自动重装值
 144              		.loc 1 49 0
 145 00d6 144B     		ldr	r3, .L8+4
 146 00d8 D3E90023 		ldrd	r2, [r3]
 147 00dc F262     		str	r2, [r6, #44]
  50:drivers/bsp_f1xx_timer.c ****     cfgtim->PSC= psc;  				//预分频器
 148              		.loc 1 50 0
 149 00de 114B     		ldr	r3, .L8
 150 00e0 D3E90023 		ldrd	r2, [r3]
 151 00e4 B262     		str	r2, [r6, #40]
  51:drivers/bsp_f1xx_timer.c ****     cfgtim->SMCR=0;					//SMS[3:0]=0000,CK_INT作为时钟源
 152              		.loc 1 51 0
 153 00e6 0023     		movs	r3, #0
 154 00e8 B360     		str	r3, [r6, #8]
  52:drivers/bsp_f1xx_timer.c ****     cfgtim->DIER|=1<<0;  			//允许更新中断
 155              		.loc 1 52 0
 156 00ea F368     		ldr	r3, [r6, #12]
 157 00ec 0343     		orrs	r3, r3, r0
 158 00ee F360     		str	r3, [r6, #12]
  53:drivers/bsp_f1xx_timer.c ****     cfgtim->CR1&=~(3<<5);			//CMS[1:0]=00,边沿对齐模式
 159              		.loc 1 53 0
 160 00f0 3368     		ldr	r3, [r6]
 161 00f2 23F06003 		bic	r3, r3, #96
 162 00f6 3360     		str	r3, [r6]
  54:drivers/bsp_f1xx_timer.c ****     cfgtim->CR1&=~(1<<4);			//DIR=0,向上计数模式
 163              		.loc 1 54 0
 164 00f8 3368     		ldr	r3, [r6]
 165 00fa 23F01003 		bic	r3, r3, #16
 166 00fe 3360     		str	r3, [r6]
ARM GAS  /var/folders/vc/p32jbmgs3k17njj5gy_2_k3w0000gn/T//ccEpzWtk.s 			page 5


  55:drivers/bsp_f1xx_timer.c **** 
  56:drivers/bsp_f1xx_timer.c ****     funcs[offset] = timer->ontimout;
 167              		.loc 1 56 0
 168 0100 D8F80820 		ldr	r2, [r8, #8]
 169 0104 0B4B     		ldr	r3, .L8+16
 170 0106 43F82720 		str	r2, [r3, r7, lsl #2]
  57:drivers/bsp_f1xx_timer.c ****     MY_NVIC_Init(1,offset,timirqs[offset],2);	//抢占1，子优先级3，组2
 171              		.loc 1 57 0
 172 010a 0223     		movs	r3, #2
 173 010c 0A4A     		ldr	r2, .L8+20
 174 010e D25D     		ldrb	r2, [r2, r7]	@ zero_extendqisi2
 175 0110 4946     		mov	r1, r9
 176 0112 FFF7FEFF 		bl	MY_NVIC_Init
 177              	.LVL9:
  58:drivers/bsp_f1xx_timer.c ****     cfgtim->CR1|=0x01;				//使能定时器3
 178              		.loc 1 58 0
 179 0116 3368     		ldr	r3, [r6]
 180 0118 43F00103 		orr	r3, r3, #1
 181 011c 3360     		str	r3, [r6]
  59:drivers/bsp_f1xx_timer.c **** }
 182              		.loc 1 59 0
 183 011e BDE8F08B 		pop	{r4, r5, r6, r7, r8, r9, fp, pc}
 184              	.LVL10:
 185              	.L9:
 186 0122 00BF     		.align	2
 187              	.L8:
 188 0124 00000000 		.word	.LANCHOR0
 189 0128 00000000 		.word	.LANCHOR1
 190 012c 40190100 		.word	72000
 191 0130 00100240 		.word	1073876992
 192 0134 00000000 		.word	.LANCHOR2
 193 0138 00000000 		.word	.LANCHOR3
 194              		.cfi_endproc
 195              	.LFE67:
 197              		.section	.text.TIM2_IRQHandler,"ax",%progbits
 198              		.align	1
 199              		.global	TIM2_IRQHandler
 200              		.syntax unified
 201              		.thumb
 202              		.thumb_func
 203              		.fpu softvfp
 205              	TIM2_IRQHandler:
 206              	.LFB68:
  60:drivers/bsp_f1xx_timer.c **** 
  61:drivers/bsp_f1xx_timer.c **** //定时器2中断服务程序
  62:drivers/bsp_f1xx_timer.c **** void TIM2_IRQHandler(void)
  63:drivers/bsp_f1xx_timer.c **** {
 207              		.loc 1 63 0
 208              		.cfi_startproc
 209              		@ args = 0, pretend = 0, frame = 0
 210              		@ frame_needed = 0, uses_anonymous_args = 0
 211 0000 08B5     		push	{r3, lr}
 212              	.LCFI1:
 213              		.cfi_def_cfa_offset 8
 214              		.cfi_offset 3, -8
 215              		.cfi_offset 14, -4
  64:drivers/bsp_f1xx_timer.c ****     if(TIM2->SR&0X0001)//溢出中断
ARM GAS  /var/folders/vc/p32jbmgs3k17njj5gy_2_k3w0000gn/T//ccEpzWtk.s 			page 6


 216              		.loc 1 64 0
 217 0002 4FF08043 		mov	r3, #1073741824
 218 0006 1B69     		ldr	r3, [r3, #16]
 219 0008 13F0010F 		tst	r3, #1
 220 000c 02D0     		beq	.L11
  65:drivers/bsp_f1xx_timer.c ****     {
  66:drivers/bsp_f1xx_timer.c ****         funcs[0]();
 221              		.loc 1 66 0
 222 000e 054B     		ldr	r3, .L13
 223 0010 1B68     		ldr	r3, [r3]
 224 0012 9847     		blx	r3
 225              	.LVL11:
 226              	.L11:
  67:drivers/bsp_f1xx_timer.c ****     }
  68:drivers/bsp_f1xx_timer.c ****     TIM2->SR&=~(1<<0);//清除中断标志位
 227              		.loc 1 68 0
 228 0014 4FF08042 		mov	r2, #1073741824
 229 0018 1369     		ldr	r3, [r2, #16]
 230 001a 23F00103 		bic	r3, r3, #1
 231 001e 1361     		str	r3, [r2, #16]
  69:drivers/bsp_f1xx_timer.c **** }
 232              		.loc 1 69 0
 233 0020 08BD     		pop	{r3, pc}
 234              	.L14:
 235 0022 00BF     		.align	2
 236              	.L13:
 237 0024 00000000 		.word	.LANCHOR2
 238              		.cfi_endproc
 239              	.LFE68:
 241              		.section	.text.TIM3_IRQHandler,"ax",%progbits
 242              		.align	1
 243              		.global	TIM3_IRQHandler
 244              		.syntax unified
 245              		.thumb
 246              		.thumb_func
 247              		.fpu softvfp
 249              	TIM3_IRQHandler:
 250              	.LFB69:
  70:drivers/bsp_f1xx_timer.c **** 
  71:drivers/bsp_f1xx_timer.c **** //定时器3中断服务程序
  72:drivers/bsp_f1xx_timer.c **** void TIM3_IRQHandler(void)
  73:drivers/bsp_f1xx_timer.c **** {
 251              		.loc 1 73 0
 252              		.cfi_startproc
 253              		@ args = 0, pretend = 0, frame = 0
 254              		@ frame_needed = 0, uses_anonymous_args = 0
 255 0000 08B5     		push	{r3, lr}
 256              	.LCFI2:
 257              		.cfi_def_cfa_offset 8
 258              		.cfi_offset 3, -8
 259              		.cfi_offset 14, -4
  74:drivers/bsp_f1xx_timer.c ****     if(TIM3->SR&0X0001)//溢出中断
 260              		.loc 1 74 0
 261 0002 074B     		ldr	r3, .L18
 262 0004 1B69     		ldr	r3, [r3, #16]
 263 0006 13F0010F 		tst	r3, #1
 264 000a 02D0     		beq	.L16
ARM GAS  /var/folders/vc/p32jbmgs3k17njj5gy_2_k3w0000gn/T//ccEpzWtk.s 			page 7


  75:drivers/bsp_f1xx_timer.c ****     {
  76:drivers/bsp_f1xx_timer.c ****         funcs[1]();
 265              		.loc 1 76 0
 266 000c 054B     		ldr	r3, .L18+4
 267 000e 5B68     		ldr	r3, [r3, #4]
 268 0010 9847     		blx	r3
 269              	.LVL12:
 270              	.L16:
  77:drivers/bsp_f1xx_timer.c ****     }
  78:drivers/bsp_f1xx_timer.c ****     TIM3->SR&=~(1<<0);//清除中断标志位
 271              		.loc 1 78 0
 272 0012 034A     		ldr	r2, .L18
 273 0014 1369     		ldr	r3, [r2, #16]
 274 0016 23F00103 		bic	r3, r3, #1
 275 001a 1361     		str	r3, [r2, #16]
  79:drivers/bsp_f1xx_timer.c **** }
 276              		.loc 1 79 0
 277 001c 08BD     		pop	{r3, pc}
 278              	.L19:
 279 001e 00BF     		.align	2
 280              	.L18:
 281 0020 00040040 		.word	1073742848
 282 0024 00000000 		.word	.LANCHOR2
 283              		.cfi_endproc
 284              	.LFE69:
 286              		.section	.text.TIM4_IRQHandler,"ax",%progbits
 287              		.align	1
 288              		.global	TIM4_IRQHandler
 289              		.syntax unified
 290              		.thumb
 291              		.thumb_func
 292              		.fpu softvfp
 294              	TIM4_IRQHandler:
 295              	.LFB70:
  80:drivers/bsp_f1xx_timer.c **** 
  81:drivers/bsp_f1xx_timer.c **** //定时器4中断服务程序
  82:drivers/bsp_f1xx_timer.c **** void TIM4_IRQHandler(void)
  83:drivers/bsp_f1xx_timer.c **** {
 296              		.loc 1 83 0
 297              		.cfi_startproc
 298              		@ args = 0, pretend = 0, frame = 0
 299              		@ frame_needed = 0, uses_anonymous_args = 0
 300 0000 08B5     		push	{r3, lr}
 301              	.LCFI3:
 302              		.cfi_def_cfa_offset 8
 303              		.cfi_offset 3, -8
 304              		.cfi_offset 14, -4
  84:drivers/bsp_f1xx_timer.c ****     if(TIM4->SR&0X0001)//溢出中断
 305              		.loc 1 84 0
 306 0002 074B     		ldr	r3, .L23
 307 0004 1B69     		ldr	r3, [r3, #16]
 308 0006 13F0010F 		tst	r3, #1
 309 000a 02D0     		beq	.L21
  85:drivers/bsp_f1xx_timer.c ****     {
  86:drivers/bsp_f1xx_timer.c ****         funcs[2]();
 310              		.loc 1 86 0
 311 000c 054B     		ldr	r3, .L23+4
ARM GAS  /var/folders/vc/p32jbmgs3k17njj5gy_2_k3w0000gn/T//ccEpzWtk.s 			page 8


 312 000e 9B68     		ldr	r3, [r3, #8]
 313 0010 9847     		blx	r3
 314              	.LVL13:
 315              	.L21:
  87:drivers/bsp_f1xx_timer.c ****     }
  88:drivers/bsp_f1xx_timer.c ****     TIM4->SR&=~(1<<0);//清除中断标志位
 316              		.loc 1 88 0
 317 0012 034A     		ldr	r2, .L23
 318 0014 1369     		ldr	r3, [r2, #16]
 319 0016 23F00103 		bic	r3, r3, #1
 320 001a 1361     		str	r3, [r2, #16]
  89:drivers/bsp_f1xx_timer.c **** }
 321              		.loc 1 89 0
 322 001c 08BD     		pop	{r3, pc}
 323              	.L24:
 324 001e 00BF     		.align	2
 325              	.L23:
 326 0020 00080040 		.word	1073743872
 327 0024 00000000 		.word	.LANCHOR2
 328              		.cfi_endproc
 329              	.LFE70:
 331              		.section	.text.TIM5_IRQHandler,"ax",%progbits
 332              		.align	1
 333              		.global	TIM5_IRQHandler
 334              		.syntax unified
 335              		.thumb
 336              		.thumb_func
 337              		.fpu softvfp
 339              	TIM5_IRQHandler:
 340              	.LFB71:
  90:drivers/bsp_f1xx_timer.c **** 
  91:drivers/bsp_f1xx_timer.c **** //定时器5中断服务程序
  92:drivers/bsp_f1xx_timer.c **** void TIM5_IRQHandler(void)
  93:drivers/bsp_f1xx_timer.c **** {
 341              		.loc 1 93 0
 342              		.cfi_startproc
 343              		@ args = 0, pretend = 0, frame = 0
 344              		@ frame_needed = 0, uses_anonymous_args = 0
 345 0000 08B5     		push	{r3, lr}
 346              	.LCFI4:
 347              		.cfi_def_cfa_offset 8
 348              		.cfi_offset 3, -8
 349              		.cfi_offset 14, -4
  94:drivers/bsp_f1xx_timer.c ****     if(TIM5->SR&0X0001)//溢出中断
 350              		.loc 1 94 0
 351 0002 074B     		ldr	r3, .L28
 352 0004 1B69     		ldr	r3, [r3, #16]
 353 0006 13F0010F 		tst	r3, #1
 354 000a 02D0     		beq	.L26
  95:drivers/bsp_f1xx_timer.c ****     {
  96:drivers/bsp_f1xx_timer.c ****         funcs[3]();
 355              		.loc 1 96 0
 356 000c 054B     		ldr	r3, .L28+4
 357 000e DB68     		ldr	r3, [r3, #12]
 358 0010 9847     		blx	r3
 359              	.LVL14:
 360              	.L26:
ARM GAS  /var/folders/vc/p32jbmgs3k17njj5gy_2_k3w0000gn/T//ccEpzWtk.s 			page 9


  97:drivers/bsp_f1xx_timer.c ****     }
  98:drivers/bsp_f1xx_timer.c ****     TIM5->SR&=~(1<<0);//清除中断标志位
 361              		.loc 1 98 0
 362 0012 034A     		ldr	r2, .L28
 363 0014 1369     		ldr	r3, [r2, #16]
 364 0016 23F00103 		bic	r3, r3, #1
 365 001a 1361     		str	r3, [r2, #16]
  99:drivers/bsp_f1xx_timer.c **** }
 366              		.loc 1 99 0
 367 001c 08BD     		pop	{r3, pc}
 368              	.L29:
 369 001e 00BF     		.align	2
 370              	.L28:
 371 0020 000C0040 		.word	1073744896
 372 0024 00000000 		.word	.LANCHOR2
 373              		.cfi_endproc
 374              	.LFE71:
 376              		.section	.text.TIM6_IRQHandler,"ax",%progbits
 377              		.align	1
 378              		.global	TIM6_IRQHandler
 379              		.syntax unified
 380              		.thumb
 381              		.thumb_func
 382              		.fpu softvfp
 384              	TIM6_IRQHandler:
 385              	.LFB72:
 100:drivers/bsp_f1xx_timer.c **** 
 101:drivers/bsp_f1xx_timer.c **** //定时器6中断服务程序
 102:drivers/bsp_f1xx_timer.c **** void TIM6_DAC_IRQHandler(void)
 103:drivers/bsp_f1xx_timer.c **** {
 386              		.loc 1 103 0
 387              		.cfi_startproc
 388              		@ args = 0, pretend = 0, frame = 0
 389              		@ frame_needed = 0, uses_anonymous_args = 0
 390 0000 08B5     		push	{r3, lr}
 391              	.LCFI5:
 392              		.cfi_def_cfa_offset 8
 393              		.cfi_offset 3, -8
 394              		.cfi_offset 14, -4
 104:drivers/bsp_f1xx_timer.c ****     if(TIM6->SR&0X0001)//溢出中断
 395              		.loc 1 104 0
 396 0002 074B     		ldr	r3, .L33
 397 0004 1B69     		ldr	r3, [r3, #16]
 398 0006 13F0010F 		tst	r3, #1
 399 000a 02D0     		beq	.L31
 105:drivers/bsp_f1xx_timer.c ****     {
 106:drivers/bsp_f1xx_timer.c ****         funcs[4]();
 400              		.loc 1 106 0
 401 000c 054B     		ldr	r3, .L33+4
 402 000e 1B69     		ldr	r3, [r3, #16]
 403 0010 9847     		blx	r3
 404              	.LVL15:
 405              	.L31:
 107:drivers/bsp_f1xx_timer.c ****     }
 108:drivers/bsp_f1xx_timer.c ****     TIM4->SR&=~(1<<0);//清除中断标志位
 406              		.loc 1 108 0
 407 0012 054A     		ldr	r2, .L33+8
ARM GAS  /var/folders/vc/p32jbmgs3k17njj5gy_2_k3w0000gn/T//ccEpzWtk.s 			page 10


 408 0014 1369     		ldr	r3, [r2, #16]
 409 0016 23F00103 		bic	r3, r3, #1
 410 001a 1361     		str	r3, [r2, #16]
 109:drivers/bsp_f1xx_timer.c **** }
 411              		.loc 1 109 0
 412 001c 08BD     		pop	{r3, pc}
 413              	.L34:
 414 001e 00BF     		.align	2
 415              	.L33:
 416 0020 00100040 		.word	1073745920
 417 0024 00000000 		.word	.LANCHOR2
 418 0028 00080040 		.word	1073743872
 419              		.cfi_endproc
 420              	.LFE72:
 422              		.section	.text.TIM7_IRQHandler,"ax",%progbits
 423              		.align	1
 424              		.global	TIM7_IRQHandler
 425              		.syntax unified
 426              		.thumb
 427              		.thumb_func
 428              		.fpu softvfp
 430              	TIM7_IRQHandler:
 431              	.LFB73:
 110:drivers/bsp_f1xx_timer.c **** 
 111:drivers/bsp_f1xx_timer.c **** //定时器7中断服务程序
 112:drivers/bsp_f1xx_timer.c **** void TIM7_IRQHandler(void)
 113:drivers/bsp_f1xx_timer.c **** {
 432              		.loc 1 113 0
 433              		.cfi_startproc
 434              		@ args = 0, pretend = 0, frame = 0
 435              		@ frame_needed = 0, uses_anonymous_args = 0
 436 0000 08B5     		push	{r3, lr}
 437              	.LCFI6:
 438              		.cfi_def_cfa_offset 8
 439              		.cfi_offset 3, -8
 440              		.cfi_offset 14, -4
 114:drivers/bsp_f1xx_timer.c ****     if(TIM7->SR&0X0001)//溢出中断
 441              		.loc 1 114 0
 442 0002 074B     		ldr	r3, .L38
 443 0004 1B69     		ldr	r3, [r3, #16]
 444 0006 13F0010F 		tst	r3, #1
 445 000a 02D0     		beq	.L36
 115:drivers/bsp_f1xx_timer.c ****     {
 116:drivers/bsp_f1xx_timer.c ****         funcs[5]();
 446              		.loc 1 116 0
 447 000c 054B     		ldr	r3, .L38+4
 448 000e 5B69     		ldr	r3, [r3, #20]
 449 0010 9847     		blx	r3
 450              	.LVL16:
 451              	.L36:
 117:drivers/bsp_f1xx_timer.c ****     }
 118:drivers/bsp_f1xx_timer.c ****     TIM7->SR&=~(1<<0);//清除中断标志位
 452              		.loc 1 118 0
 453 0012 034A     		ldr	r2, .L38
 454 0014 1369     		ldr	r3, [r2, #16]
 455 0016 23F00103 		bic	r3, r3, #1
 456 001a 1361     		str	r3, [r2, #16]
ARM GAS  /var/folders/vc/p32jbmgs3k17njj5gy_2_k3w0000gn/T//ccEpzWtk.s 			page 11


 119:drivers/bsp_f1xx_timer.c **** }
 457              		.loc 1 119 0
 458 001c 08BD     		pop	{r3, pc}
 459              	.L39:
 460 001e 00BF     		.align	2
 461              	.L38:
 462 0020 00140040 		.word	1073746944
 463 0024 00000000 		.word	.LANCHOR2
 464              		.cfi_endproc
 465              	.LFE73:
 467              		.global	timirqs
 468              		.section	.bss.arr,"aw",%nobits
 469              		.align	3
 470              		.set	.LANCHOR1,. + 0
 473              	arr:
 474 0000 00000000 		.space	8
 474      00000000 
 475              		.section	.bss.funcs,"aw",%nobits
 476              		.align	2
 477              		.set	.LANCHOR2,. + 0
 480              	funcs:
 481 0000 00000000 		.space	24
 481      00000000 
 481      00000000 
 481      00000000 
 481      00000000 
 482              		.section	.bss.psc,"aw",%nobits
 483              		.align	3
 484              		.set	.LANCHOR0,. + 0
 487              	psc:
 488 0000 00000000 		.space	8
 488      00000000 
 489              		.section	.data.timirqs,"aw",%progbits
 490              		.align	2
 491              		.set	.LANCHOR3,. + 0
 494              	timirqs:
 495 0000 1C       		.byte	28
 496 0001 1D       		.byte	29
 497 0002 1E       		.byte	30
 498 0003 32       		.byte	50
 499 0004 36       		.byte	54
 500 0005 37       		.byte	55
 501              		.text
 502              	.Letext0:
 503              		.file 2 "/Users/zy/Desktop/Tools/gcc-arm-none-eabi-9-2019-q4-major/arm-none-eabi/include/machine/_
 504              		.file 3 "/Users/zy/Desktop/Tools/gcc-arm-none-eabi-9-2019-q4-major/arm-none-eabi/include/sys/_stdi
 505              		.file 4 "Inc/stm32f103xe.h"
 506              		.file 5 "/Users/zy/Desktop/Tools/gcc-arm-none-eabi-9-2019-q4-major/arm-none-eabi/include/sys/lock.
 507              		.file 6 "/Users/zy/Desktop/Tools/gcc-arm-none-eabi-9-2019-q4-major/arm-none-eabi/include/sys/_type
 508              		.file 7 "/Users/zy/Desktop/Tools/gcc-arm-none-eabi-7-2017-q4-major/lib/gcc/arm-none-eabi/7.2.1/inc
 509              		.file 8 "/Users/zy/Desktop/Tools/gcc-arm-none-eabi-9-2019-q4-major/arm-none-eabi/include/sys/reent
 510              		.file 9 "Inc/core_cm3.h"
 511              		.file 10 "startup/inc/sys.h"
 512              		.file 11 "tools/inc/malloc.h"
 513              		.file 12 "tools/inc/tskmanager.h"
 514              		.file 13 "drivers/inc/bsp_f1xx_timer.h"
ARM GAS  /var/folders/vc/p32jbmgs3k17njj5gy_2_k3w0000gn/T//ccEpzWtk.s 			page 12

