ARM GAS  /var/folders/vc/p32jbmgs3k17njj5gy_2_k3w0000gn/T//ccChxd21.s 			page 1


   1              		.cpu cortex-m3
   2              		.eabi_attribute 20, 1
   3              		.eabi_attribute 21, 1
   4              		.eabi_attribute 23, 3
   5              		.eabi_attribute 24, 1
   6              		.eabi_attribute 25, 1
   7              		.eabi_attribute 26, 1
   8              		.eabi_attribute 30, 1
   9              		.eabi_attribute 34, 1
  10              		.eabi_attribute 18, 4
  11              		.file	"bsp_f1xx_flash.c"
  12              		.text
  13              	.Ltext0:
  14              		.cfi_sections	.debug_frame
  15              		.section	.text.bsp_EraseFlash,"ax",%progbits
  16              		.align	1
  17              		.global	bsp_EraseFlash
  18              		.syntax unified
  19              		.thumb
  20              		.thumb_func
  21              		.fpu softvfp
  23              	bsp_EraseFlash:
  24              	.LFB66:
  25              		.file 1 "drivers/bsp_f1xx_flash.c"
   1:drivers/bsp_f1xx_flash.c **** //
   2:drivers/bsp_f1xx_flash.c **** // Created by 周洋 on 2020/4/9.
   3:drivers/bsp_f1xx_flash.c **** //
   4:drivers/bsp_f1xx_flash.c **** 
   5:drivers/bsp_f1xx_flash.c **** #include "bsp_f1xx_flash.h"
   6:drivers/bsp_f1xx_flash.c **** 
   7:drivers/bsp_f1xx_flash.c **** /****************************************************************************
   8:drivers/bsp_f1xx_flash.c **** * 功    能：Flash页擦除
   9:drivers/bsp_f1xx_flash.c **** * 输    入：page：需要擦除的Flash页序号
  10:drivers/bsp_f1xx_flash.c **** * 输    出：无
  11:drivers/bsp_f1xx_flash.c **** ****************************************************************************/
  12:drivers/bsp_f1xx_flash.c **** void bsp_EraseFlash(u16 page)
  13:drivers/bsp_f1xx_flash.c **** {
  26              		.loc 1 13 0
  27              		.cfi_startproc
  28              		@ args = 0, pretend = 0, frame = 0
  29              		@ frame_needed = 0, uses_anonymous_args = 0
  30              		@ link register save eliminated.
  31              	.LVL0:
  14:drivers/bsp_f1xx_flash.c **** 	UNLOCKFLASH;
  32              		.loc 1 14 0
  33 0000 124B     		ldr	r3, .L4
  34 0002 134A     		ldr	r2, .L4+4
  35 0004 5A60     		str	r2, [r3, #4]
  36 0006 02F18832 		add	r2, r2, #-2004318072
  37 000a 5A60     		str	r2, [r3, #4]
  15:drivers/bsp_f1xx_flash.c **** 	FLASH->CR |= EARSEFLASH_PAGE;
  38              		.loc 1 15 0
  39 000c 1A69     		ldr	r2, [r3, #16]
  40 000e 42F00202 		orr	r2, r2, #2
  41 0012 1A61     		str	r2, [r3, #16]
  42              	.L2:
  16:drivers/bsp_f1xx_flash.c **** 	while (FLASH->SR & 0x01); //等待falsh空闲
ARM GAS  /var/folders/vc/p32jbmgs3k17njj5gy_2_k3w0000gn/T//ccChxd21.s 			page 2


  43              		.loc 1 16 0 discriminator 1
  44 0014 0D4B     		ldr	r3, .L4
  45 0016 DB68     		ldr	r3, [r3, #12]
  46 0018 13F0010F 		tst	r3, #1
  47 001c FAD1     		bne	.L2
  17:drivers/bsp_f1xx_flash.c **** 	FLASH->AR = (FLASHSTARTADDR + (page * FLASHPAGESIZE));
  48              		.loc 1 17 0
  49 001e 00F58030 		add	r0, r0, #65536
  50              	.LVL1:
  51 0022 C002     		lsls	r0, r0, #11
  52 0024 094B     		ldr	r3, .L4
  53 0026 5861     		str	r0, [r3, #20]
  18:drivers/bsp_f1xx_flash.c **** 	FLASH->CR |= FLASHEARSESTART;
  54              		.loc 1 18 0
  55 0028 1A69     		ldr	r2, [r3, #16]
  56 002a 42F04002 		orr	r2, r2, #64
  57 002e 1A61     		str	r2, [r3, #16]
  58              	.L3:
  19:drivers/bsp_f1xx_flash.c **** 	while (FLASH->SR & 0x01); //等待falsh空闲
  59              		.loc 1 19 0 discriminator 1
  60 0030 064B     		ldr	r3, .L4
  61 0032 DB68     		ldr	r3, [r3, #12]
  62 0034 13F0010F 		tst	r3, #1
  63 0038 FAD1     		bne	.L3
  20:drivers/bsp_f1xx_flash.c **** 
  21:drivers/bsp_f1xx_flash.c **** 	FLASH->CR &= ~EARSEFLASH_PAGE;
  64              		.loc 1 21 0
  65 003a 044B     		ldr	r3, .L4
  66 003c 1A69     		ldr	r2, [r3, #16]
  67 003e 22F00202 		bic	r2, r2, #2
  68 0042 1A61     		str	r2, [r3, #16]
  22:drivers/bsp_f1xx_flash.c **** 	LOCKFALSH;
  69              		.loc 1 22 0
  70 0044 8022     		movs	r2, #128
  71 0046 1A61     		str	r2, [r3, #16]
  23:drivers/bsp_f1xx_flash.c **** }
  72              		.loc 1 23 0
  73 0048 7047     		bx	lr
  74              	.L5:
  75 004a 00BF     		.align	2
  76              	.L4:
  77 004c 00200240 		.word	1073881088
  78 0050 23016745 		.word	1164378403
  79              		.cfi_endproc
  80              	.LFE66:
  82              		.section	.text.bsp_WriteFlash,"ax",%progbits
  83              		.align	1
  84              		.global	bsp_WriteFlash
  85              		.syntax unified
  86              		.thumb
  87              		.thumb_func
  88              		.fpu softvfp
  90              	bsp_WriteFlash:
  91              	.LFB67:
  24:drivers/bsp_f1xx_flash.c **** 
  25:drivers/bsp_f1xx_flash.c **** void bsp_WriteFlash(u32 wAddr,u8 *dat,u16 len)
  26:drivers/bsp_f1xx_flash.c **** {
ARM GAS  /var/folders/vc/p32jbmgs3k17njj5gy_2_k3w0000gn/T//ccChxd21.s 			page 3


  92              		.loc 1 26 0
  93              		.cfi_startproc
  94              		@ args = 0, pretend = 0, frame = 0
  95              		@ frame_needed = 0, uses_anonymous_args = 0
  96              		@ link register save eliminated.
  97              	.LVL2:
  98 0000 30B4     		push	{r4, r5}
  99              	.LCFI0:
 100              		.cfi_def_cfa_offset 8
 101              		.cfi_offset 4, -8
 102              		.cfi_offset 5, -4
  27:drivers/bsp_f1xx_flash.c **** 	u16*p,*q;
  28:drivers/bsp_f1xx_flash.c **** 	len >>=1;
 103              		.loc 1 28 0
 104 0002 5208     		lsrs	r2, r2, #1
 105              	.LVL3:
  29:drivers/bsp_f1xx_flash.c **** 
  30:drivers/bsp_f1xx_flash.c **** 	p = (u16*)wAddr;
  31:drivers/bsp_f1xx_flash.c **** 	q = (u16*)dat;
  32:drivers/bsp_f1xx_flash.c **** 
  33:drivers/bsp_f1xx_flash.c **** 	UNLOCKFLASH;
 106              		.loc 1 33 0
 107 0004 134B     		ldr	r3, .L11
 108 0006 144C     		ldr	r4, .L11+4
 109 0008 5C60     		str	r4, [r3, #4]
 110 000a 04F18834 		add	r4, r4, #-2004318072
 111 000e 5C60     		str	r4, [r3, #4]
  34:drivers/bsp_f1xx_flash.c **** 	FLASH->CR |= FLASH_PROGRAM;
 112              		.loc 1 34 0
 113 0010 1C69     		ldr	r4, [r3, #16]
 114 0012 44F00104 		orr	r4, r4, #1
 115 0016 1C61     		str	r4, [r3, #16]
 116              	.L7:
  35:drivers/bsp_f1xx_flash.c **** 	while (FLASH->SR & 0x01); //等待falsh空闲
 117              		.loc 1 35 0 discriminator 1
 118 0018 0E4B     		ldr	r3, .L11
 119 001a DB68     		ldr	r3, [r3, #12]
 120 001c 13F0010F 		tst	r3, #1
 121 0020 FAD1     		bne	.L7
 122              	.LVL4:
 123              	.L9:
  36:drivers/bsp_f1xx_flash.c **** 	do{
  37:drivers/bsp_f1xx_flash.c **** 		*p++=*q++;
 124              		.loc 1 37 0
 125 0022 8C1C     		adds	r4, r1, #2
 126              	.LVL5:
 127 0024 851C     		adds	r5, r0, #2
 128              	.LVL6:
 129 0026 0B88     		ldrh	r3, [r1]
 130 0028 0380     		strh	r3, [r0]	@ movhi
 131              	.L8:
  38:drivers/bsp_f1xx_flash.c **** 		while (FLASH->SR & 0x01); //等待falsh空闲
 132              		.loc 1 38 0 discriminator 1
 133 002a 0A4B     		ldr	r3, .L11
 134 002c DB68     		ldr	r3, [r3, #12]
 135 002e 13F0010F 		tst	r3, #1
 136 0032 FAD1     		bne	.L8
ARM GAS  /var/folders/vc/p32jbmgs3k17njj5gy_2_k3w0000gn/T//ccChxd21.s 			page 4


  39:drivers/bsp_f1xx_flash.c **** 	}while (--len);
 137              		.loc 1 39 0
 138 0034 013A     		subs	r2, r2, #1
 139              	.LVL7:
 140 0036 92B2     		uxth	r2, r2
 141              	.LVL8:
  37:drivers/bsp_f1xx_flash.c **** 		while (FLASH->SR & 0x01); //等待falsh空闲
 142              		.loc 1 37 0
 143 0038 2846     		mov	r0, r5
 144 003a 2146     		mov	r1, r4
 145              		.loc 1 39 0
 146 003c 002A     		cmp	r2, #0
 147 003e F0D1     		bne	.L9
 148              	.LVL9:
  40:drivers/bsp_f1xx_flash.c **** 	FLASH->CR &= ~FLASH_PROGRAM; //退出FLASH编程模式
 149              		.loc 1 40 0
 150 0040 044B     		ldr	r3, .L11
 151 0042 1A69     		ldr	r2, [r3, #16]
 152              	.LVL10:
 153 0044 22F00102 		bic	r2, r2, #1
 154 0048 1A61     		str	r2, [r3, #16]
  41:drivers/bsp_f1xx_flash.c **** 	LOCKFALSH;
 155              		.loc 1 41 0
 156 004a 8022     		movs	r2, #128
 157 004c 1A61     		str	r2, [r3, #16]
  42:drivers/bsp_f1xx_flash.c **** }
 158              		.loc 1 42 0
 159 004e 30BC     		pop	{r4, r5}
 160              	.LCFI1:
 161              		.cfi_restore 5
 162              		.cfi_restore 4
 163              		.cfi_def_cfa_offset 0
 164 0050 7047     		bx	lr
 165              	.L12:
 166 0052 00BF     		.align	2
 167              	.L11:
 168 0054 00200240 		.word	1073881088
 169 0058 23016745 		.word	1164378403
 170              		.cfi_endproc
 171              	.LFE67:
 173              		.section	.text.bsp_ReadFlash,"ax",%progbits
 174              		.align	1
 175              		.global	bsp_ReadFlash
 176              		.syntax unified
 177              		.thumb
 178              		.thumb_func
 179              		.fpu softvfp
 181              	bsp_ReadFlash:
 182              	.LFB68:
  43:drivers/bsp_f1xx_flash.c **** 
  44:drivers/bsp_f1xx_flash.c **** void bsp_ReadFlash(u32 rAddr,u8 *dat,u16 len)
  45:drivers/bsp_f1xx_flash.c **** {
 183              		.loc 1 45 0
 184              		.cfi_startproc
 185              		@ args = 0, pretend = 0, frame = 0
 186              		@ frame_needed = 0, uses_anonymous_args = 0
 187              		@ link register save eliminated.
ARM GAS  /var/folders/vc/p32jbmgs3k17njj5gy_2_k3w0000gn/T//ccChxd21.s 			page 5


 188              	.LVL11:
  46:drivers/bsp_f1xx_flash.c **** 	len >>= 1;
 189              		.loc 1 46 0
 190 0000 5208     		lsrs	r2, r2, #1
 191              	.LVL12:
 192              	.L14:
  47:drivers/bsp_f1xx_flash.c **** 	u16 *p = (u16*)dat;
  48:drivers/bsp_f1xx_flash.c **** 	u16 *q = (u16*)rAddr;
  49:drivers/bsp_f1xx_flash.c **** 	do{
  50:drivers/bsp_f1xx_flash.c **** 		*p++ = *q++;
 193              		.loc 1 50 0 discriminator 1
 194 0002 0388     		ldrh	r3, [r0]
 195 0004 0B80     		strh	r3, [r1]	@ movhi
  51:drivers/bsp_f1xx_flash.c **** 	}while(--len);
 196              		.loc 1 51 0 discriminator 1
 197 0006 013A     		subs	r2, r2, #1
 198              	.LVL13:
 199 0008 92B2     		uxth	r2, r2
 200              	.LVL14:
  50:drivers/bsp_f1xx_flash.c **** 	}while(--len);
 201              		.loc 1 50 0 discriminator 1
 202 000a 0231     		adds	r1, r1, #2
 203              	.LVL15:
 204 000c 0230     		adds	r0, r0, #2
 205              	.LVL16:
 206              		.loc 1 51 0 discriminator 1
 207 000e 002A     		cmp	r2, #0
 208 0010 F7D1     		bne	.L14
  52:drivers/bsp_f1xx_flash.c **** }...
 209              		.loc 1 52 0
 210 0012 7047     		bx	lr
 211              		.cfi_endproc
 212              	.LFE68:
 214              		.text
 215              	.Letext0:
 216              		.file 2 "/Users/zy/Desktop/Tools/gcc-arm-none-eabi-9-2019-q4-major/arm-none-eabi/include/machine/_
 217              		.file 3 "/Users/zy/Desktop/Tools/gcc-arm-none-eabi-9-2019-q4-major/arm-none-eabi/include/sys/_stdi
 218              		.file 4 "Inc/stm32f103xe.h"
 219              		.file 5 "/Users/zy/Desktop/Tools/gcc-arm-none-eabi-9-2019-q4-major/arm-none-eabi/include/sys/lock.
 220              		.file 6 "/Users/zy/Desktop/Tools/gcc-arm-none-eabi-9-2019-q4-major/arm-none-eabi/include/sys/_type
 221              		.file 7 "/Users/zy/Desktop/Tools/gcc-arm-none-eabi-7-2017-q4-major/lib/gcc/arm-none-eabi/7.2.1/inc
 222              		.file 8 "/Users/zy/Desktop/Tools/gcc-arm-none-eabi-9-2019-q4-major/arm-none-eabi/include/sys/reent
 223              		.file 9 "Inc/core_cm3.h"
 224              		.file 10 "startup/inc/sys.h"
 225              		.file 11 "tools/inc/malloc.h"
 226              		.file 12 "tools/inc/tskmanager.h"
ARM GAS  /var/folders/vc/p32jbmgs3k17njj5gy_2_k3w0000gn/T//ccChxd21.s 			page 6

