ARM GAS  /var/folders/vc/p32jbmgs3k17njj5gy_2_k3w0000gn/T//cc5Zt2ai.s 			page 1


   1              		.cpu cortex-m3
   2              		.eabi_attribute 20, 1
   3              		.eabi_attribute 21, 1
   4              		.eabi_attribute 23, 3
   5              		.eabi_attribute 24, 1
   6              		.eabi_attribute 25, 1
   7              		.eabi_attribute 26, 1
   8              		.eabi_attribute 30, 1
   9              		.eabi_attribute 34, 1
  10              		.eabi_attribute 18, 4
  11              		.file	"bsp_f1xx_io.c"
  12              		.text
  13              	.Ltext0:
  14              		.cfi_sections	.debug_frame
  15              		.section	.text.bsp_IoInit,"ax",%progbits
  16              		.align	1
  17              		.global	bsp_IoInit
  18              		.syntax unified
  19              		.thumb
  20              		.thumb_func
  21              		.fpu softvfp
  23              	bsp_IoInit:
  24              	.LFB66:
  25              		.file 1 "drivers/bsp_f1xx_io.c"
   1:drivers/bsp_f1xx_io.c **** #include "bsp_f1xx_io.h"
   2:drivers/bsp_f1xx_io.c **** 
   3:drivers/bsp_f1xx_io.c **** void bsp_IoInit(_io *io)
   4:drivers/bsp_f1xx_io.c **** {
  26              		.loc 1 4 0
  27              		.cfi_startproc
  28              		@ args = 0, pretend = 0, frame = 0
  29              		@ frame_needed = 0, uses_anonymous_args = 0
  30              		@ link register save eliminated.
  31              	.LVL0:
  32 0000 2DE9F003 		push	{r4, r5, r6, r7, r8, r9}
  33              	.LCFI0:
  34              		.cfi_def_cfa_offset 24
  35              		.cfi_offset 4, -24
  36              		.cfi_offset 5, -20
  37              		.cfi_offset 6, -16
  38              		.cfi_offset 7, -12
  39              		.cfi_offset 8, -8
  40              		.cfi_offset 9, -4
   5:drivers/bsp_f1xx_io.c **** 	u8 offset = 2 + ((((u32) io->port) - GPIOA_BASE) / 0x400);
  41              		.loc 1 5 0
  42 0004 0168     		ldr	r1, [r0]
  43 0006 01F14043 		add	r3, r1, #-1073741824
  44 000a A3F58433 		sub	r3, r3, #67584
  45 000e C3F38723 		ubfx	r3, r3, #10, #8
  46 0012 0233     		adds	r3, r3, #2
  47 0014 DBB2     		uxtb	r3, r3
  48              	.LVL1:
   6:drivers/bsp_f1xx_io.c **** 	MyGPIO_TypeDef *port = io->port;
   7:drivers/bsp_f1xx_io.c **** 
   8:drivers/bsp_f1xx_io.c **** 	RCC->APB2ENR |= 1 << offset;
  49              		.loc 1 8 0
  50 0016 194D     		ldr	r5, .L3
ARM GAS  /var/folders/vc/p32jbmgs3k17njj5gy_2_k3w0000gn/T//cc5Zt2ai.s 			page 2


  51 0018 AA69     		ldr	r2, [r5, #24]
  52 001a 0124     		movs	r4, #1
  53 001c 04FA03F3 		lsl	r3, r4, r3
  54              	.LVL2:
  55 0020 1343     		orrs	r3, r3, r2
  56 0022 AB61     		str	r3, [r5, #24]
   9:drivers/bsp_f1xx_io.c **** 	port->CR &= ~(0x0F << (io->pinx << 2));
  57              		.loc 1 9 0
  58 0024 D1E90067 		ldrd	r6, [r1]
  59 0028 0379     		ldrb	r3, [r0, #4]	@ zero_extendqisi2
  60 002a 9A00     		lsls	r2, r3, #2
  61 002c 0F23     		movs	r3, #15
  62 002e 9340     		lsls	r3, r3, r2
  63 0030 DB43     		mvns	r3, r3
  64 0032 06EA0304 		and	r4, r6, r3
  65 0036 07EAE375 		and	r5, r7, r3, asr #31
  66 003a C1E90045 		strd	r4, [r1]
  10:drivers/bsp_f1xx_io.c **** 	port->CR |= ((u64) io->mode) << (io->pinx << 2);
  67              		.loc 1 10 0
  68 003e D1E90045 		ldrd	r4, [r1]
  69 0042 4279     		ldrb	r2, [r0, #5]	@ zero_extendqisi2
  70 0044 0079     		ldrb	r0, [r0, #4]	@ zero_extendqisi2
  71              	.LVL3:
  72 0046 8000     		lsls	r0, r0, #2
  73 0048 A0F1200C 		sub	ip, r0, #32
  74 004c C0F12007 		rsb	r7, r0, #32
  75 0050 4FF00009 		mov	r9, #0
  76 0054 02FA0CFC 		lsl	ip, r2, ip
  77 0058 49EA0C09 		orr	r9, r9, ip
  78 005c 22FA07F7 		lsr	r7, r2, r7
  79 0060 49EA0709 		orr	r9, r9, r7
  80 0064 02FA00F8 		lsl	r8, r2, r0
  81 0068 48EA0402 		orr	r2, r8, r4
  82 006c 49EA0503 		orr	r3, r9, r5
  83 0070 C1E90023 		strd	r2, [r1]
  11:drivers/bsp_f1xx_io.c **** }
  84              		.loc 1 11 0
  85 0074 BDE8F003 		pop	{r4, r5, r6, r7, r8, r9}
  86              	.LCFI1:
  87              		.cfi_restore 9
  88              		.cfi_restore 8
  89              		.cfi_restore 7
  90              		.cfi_restore 6
  91              		.cfi_restore 5
  92              		.cfi_restore 4
  93              		.cfi_def_cfa_offset 0
  94 0078 7047     		bx	lr
  95              	.L4:
  96 007a 00BF     		.align	2
  97              	.L3:
  98 007c 00100240 		.word	1073876992
  99              		.cfi_endproc
 100              	.LFE66:
 102              		.section	.text.bsp_IoSet,"ax",%progbits
 103              		.align	1
 104              		.global	bsp_IoSet
 105              		.syntax unified
ARM GAS  /var/folders/vc/p32jbmgs3k17njj5gy_2_k3w0000gn/T//cc5Zt2ai.s 			page 3


 106              		.thumb
 107              		.thumb_func
 108              		.fpu softvfp
 110              	bsp_IoSet:
 111              	.LFB67:
  12:drivers/bsp_f1xx_io.c **** 
  13:drivers/bsp_f1xx_io.c **** void bsp_IoSet(_io *io)
  14:drivers/bsp_f1xx_io.c **** {
 112              		.loc 1 14 0
 113              		.cfi_startproc
 114              		@ args = 0, pretend = 0, frame = 0
 115              		@ frame_needed = 0, uses_anonymous_args = 0
 116              		@ link register save eliminated.
 117              	.LVL4:
  15:drivers/bsp_f1xx_io.c **** 	io->port->BSRR = 1 << io->pinx;
 118              		.loc 1 15 0
 119 0000 0179     		ldrb	r1, [r0, #4]	@ zero_extendqisi2
 120 0002 0268     		ldr	r2, [r0]
 121 0004 0123     		movs	r3, #1
 122 0006 8B40     		lsls	r3, r3, r1
 123 0008 1361     		str	r3, [r2, #16]
  16:drivers/bsp_f1xx_io.c **** }
 124              		.loc 1 16 0
 125 000a 7047     		bx	lr
 126              		.cfi_endproc
 127              	.LFE67:
 129              		.section	.text.bsp_IoClr,"ax",%progbits
 130              		.align	1
 131              		.global	bsp_IoClr
 132              		.syntax unified
 133              		.thumb
 134              		.thumb_func
 135              		.fpu softvfp
 137              	bsp_IoClr:
 138              	.LFB68:
  17:drivers/bsp_f1xx_io.c **** 
  18:drivers/bsp_f1xx_io.c **** void bsp_IoClr(_io *io)
  19:drivers/bsp_f1xx_io.c **** {
 139              		.loc 1 19 0
 140              		.cfi_startproc
 141              		@ args = 0, pretend = 0, frame = 0
 142              		@ frame_needed = 0, uses_anonymous_args = 0
 143              		@ link register save eliminated.
 144              	.LVL5:
  20:drivers/bsp_f1xx_io.c **** 	io->port->BRR = 1 << io->pinx;
 145              		.loc 1 20 0
 146 0000 0179     		ldrb	r1, [r0, #4]	@ zero_extendqisi2
 147 0002 0268     		ldr	r2, [r0]
 148 0004 0123     		movs	r3, #1
 149 0006 8B40     		lsls	r3, r3, r1
 150 0008 5361     		str	r3, [r2, #20]
  21:drivers/bsp_f1xx_io.c **** }
 151              		.loc 1 21 0
 152 000a 7047     		bx	lr
 153              		.cfi_endproc
 154              	.LFE68:
 156              		.section	.text.bsp_IoRead,"ax",%progbits
ARM GAS  /var/folders/vc/p32jbmgs3k17njj5gy_2_k3w0000gn/T//cc5Zt2ai.s 			page 4


 157              		.align	1
 158              		.global	bsp_IoRead
 159              		.syntax unified
 160              		.thumb
 161              		.thumb_func
 162              		.fpu softvfp
 164              	bsp_IoRead:
 165              	.LFB69:
  22:drivers/bsp_f1xx_io.c **** 
  23:drivers/bsp_f1xx_io.c **** u8 bsp_IoRead(_io *io)
  24:drivers/bsp_f1xx_io.c **** {
 166              		.loc 1 24 0
 167              		.cfi_startproc
 168              		@ args = 0, pretend = 0, frame = 0
 169              		@ frame_needed = 0, uses_anonymous_args = 0
 170              		@ link register save eliminated.
 171              	.LVL6:
  25:drivers/bsp_f1xx_io.c **** 	return ((io->port->IDR >> io->pinx) & 0x01);
 172              		.loc 1 25 0
 173 0000 0368     		ldr	r3, [r0]
 174 0002 9B68     		ldr	r3, [r3, #8]
 175 0004 0079     		ldrb	r0, [r0, #4]	@ zero_extendqisi2
 176              	.LVL7:
 177 0006 23FA00F0 		lsr	r0, r3, r0
  26:drivers/bsp_f1xx_io.c **** }
 178              		.loc 1 26 0
 179 000a 00F00100 		and	r0, r0, #1
 180 000e 7047     		bx	lr
 181              		.cfi_endproc
 182              	.LFE69:
 184              		.text
 185              	.Letext0:
 186              		.file 2 "/Users/zy/Desktop/Tools/gcc-arm-none-eabi-9-2019-q4-major/arm-none-eabi/include/machine/_
 187              		.file 3 "/Users/zy/Desktop/Tools/gcc-arm-none-eabi-9-2019-q4-major/arm-none-eabi/include/sys/_stdi
 188              		.file 4 "Inc/stm32f103xe.h"
 189              		.file 5 "/Users/zy/Desktop/Tools/gcc-arm-none-eabi-9-2019-q4-major/arm-none-eabi/include/sys/lock.
 190              		.file 6 "/Users/zy/Desktop/Tools/gcc-arm-none-eabi-9-2019-q4-major/arm-none-eabi/include/sys/_type
 191              		.file 7 "/Users/zy/Desktop/Tools/gcc-arm-none-eabi-7-2017-q4-major/lib/gcc/arm-none-eabi/7.2.1/inc
 192              		.file 8 "/Users/zy/Desktop/Tools/gcc-arm-none-eabi-9-2019-q4-major/arm-none-eabi/include/sys/reent
 193              		.file 9 "Inc/core_cm3.h"
 194              		.file 10 "startup/inc/sys.h"
 195              		.file 11 "tools/inc/malloc.h"
 196              		.file 12 "tools/inc/tskmanager.h"
 197              		.file 13 "drivers/inc/bsp_f1xx_io.h"
ARM GAS  /var/folders/vc/p32jbmgs3k17njj5gy_2_k3w0000gn/T//cc5Zt2ai.s 			page 5

