ARM GAS  /var/folders/vc/p32jbmgs3k17njj5gy_2_k3w0000gn/T//cculYdhE.s 			page 1


   1              		.cpu cortex-m3
   2              		.eabi_attribute 20, 1
   3              		.eabi_attribute 21, 1
   4              		.eabi_attribute 23, 3
   5              		.eabi_attribute 24, 1
   6              		.eabi_attribute 25, 1
   7              		.eabi_attribute 26, 1
   8              		.eabi_attribute 30, 1
   9              		.eabi_attribute 34, 1
  10              		.eabi_attribute 18, 4
  11              		.file	"bsp_f1xx_dma.c"
  12              		.text
  13              	.Ltext0:
  14              		.cfi_sections	.debug_frame
  15              		.section	.text.getdmax,"ax",%progbits
  16              		.align	1
  17              		.global	getdmax
  18              		.syntax unified
  19              		.thumb
  20              		.thumb_func
  21              		.fpu softvfp
  23              	getdmax:
  24              	.LFB66:
  25              		.file 1 "drivers/bsp_f1xx_dma.c"
   1:drivers/bsp_f1xx_dma.c **** #include "bsp_f1xx_dma.h"
   2:drivers/bsp_f1xx_dma.c **** 
   3:drivers/bsp_f1xx_dma.c **** DMA_TypeDef *getdmax(DMA_Channel_TypeDef *chx)
   4:drivers/bsp_f1xx_dma.c **** {
  26              		.loc 1 4 0
  27              		.cfi_startproc
  28              		@ args = 0, pretend = 0, frame = 0
  29              		@ frame_needed = 0, uses_anonymous_args = 0
  30              		@ link register save eliminated.
  31              	.LVL0:
   5:drivers/bsp_f1xx_dma.c **** 	if (chx > DMA2_Channel1)
  32              		.loc 1 5 0
  33 0000 034B     		ldr	r3, .L5
  34 0002 9842     		cmp	r0, r3
  35 0004 01D8     		bhi	.L4
   6:drivers/bsp_f1xx_dma.c **** 		return DMA2;
   7:drivers/bsp_f1xx_dma.c **** 	else
   8:drivers/bsp_f1xx_dma.c **** 		return DMA1;
  36              		.loc 1 8 0
  37 0006 0348     		ldr	r0, .L5+4
  38              	.LVL1:
   9:drivers/bsp_f1xx_dma.c **** }
  39              		.loc 1 9 0
  40 0008 7047     		bx	lr
  41              	.LVL2:
  42              	.L4:
   6:drivers/bsp_f1xx_dma.c **** 		return DMA2;
  43              		.loc 1 6 0
  44 000a 0348     		ldr	r0, .L5+8
  45              	.LVL3:
  46 000c 7047     		bx	lr
  47              	.L6:
  48 000e 00BF     		.align	2
ARM GAS  /var/folders/vc/p32jbmgs3k17njj5gy_2_k3w0000gn/T//cculYdhE.s 			page 2


  49              	.L5:
  50 0010 08040240 		.word	1073873928
  51 0014 00000240 		.word	1073872896
  52 0018 00040240 		.word	1073873920
  53              		.cfi_endproc
  54              	.LFE66:
  56              		.section	.text.dmainit,"ax",%progbits
  57              		.align	1
  58              		.global	dmainit
  59              		.syntax unified
  60              		.thumb
  61              		.thumb_func
  62              		.fpu softvfp
  64              	dmainit:
  65              	.LFB67:
  10:drivers/bsp_f1xx_dma.c **** 
  11:drivers/bsp_f1xx_dma.c **** //DMA1的各通道配置
  12:drivers/bsp_f1xx_dma.c **** //这里的传输形式是固定的,这点要根据不同的情况来修改
  13:drivers/bsp_f1xx_dma.c **** //从存储器->外设模式/8位数据宽度/存储器增量模式
  14:drivers/bsp_f1xx_dma.c **** //DMA_CHx:DMA通道CHx
  15:drivers/bsp_f1xx_dma.c **** //cpar:外设地址
  16:drivers/bsp_f1xx_dma.c **** //cmar:存储器地址
  17:drivers/bsp_f1xx_dma.c **** //cndtr:数据传输量
  18:drivers/bsp_f1xx_dma.c **** void dmainit(DMA_Channel_TypeDef *DMA_CHx, u32 cpar, u32 cmar, u8 dir)
  19:drivers/bsp_f1xx_dma.c **** {
  66              		.loc 1 19 0
  67              		.cfi_startproc
  68              		@ args = 0, pretend = 0, frame = 0
  69              		@ frame_needed = 0, uses_anonymous_args = 0
  70              		@ link register save eliminated.
  71              	.LVL4:
  72 0000 30B4     		push	{r4, r5}
  73              	.LCFI0:
  74              		.cfi_def_cfa_offset 8
  75              		.cfi_offset 4, -8
  76              		.cfi_offset 5, -4
  20:drivers/bsp_f1xx_dma.c **** 	if (DMA_CHx >= DMA2_Channel1) {
  77              		.loc 1 20 0
  78 0002 154C     		ldr	r4, .L13
  79 0004 A042     		cmp	r0, r4
  80 0006 1BD9     		bls	.L8
  21:drivers/bsp_f1xx_dma.c **** 		RCC->AHBENR |= 0x02;
  81              		.loc 1 21 0
  82 0008 144D     		ldr	r5, .L13+4
  83 000a 6C69     		ldr	r4, [r5, #20]
  84 000c 44F00204 		orr	r4, r4, #2
  85 0010 6C61     		str	r4, [r5, #20]
  86              	.L9:
  22:drivers/bsp_f1xx_dma.c **** 		while (!(RCC->AHBENR & 0x02));
  87              		.loc 1 22 0 discriminator 1
  88 0012 124C     		ldr	r4, .L13+4
  89 0014 6469     		ldr	r4, [r4, #20]
  90 0016 14F0020F 		tst	r4, #2
  91 001a FAD0     		beq	.L9
  92              	.L10:
  23:drivers/bsp_f1xx_dma.c **** 	} else {
  24:drivers/bsp_f1xx_dma.c **** 		RCC->AHBENR |= 0x01;
ARM GAS  /var/folders/vc/p32jbmgs3k17njj5gy_2_k3w0000gn/T//cculYdhE.s 			page 3


  25:drivers/bsp_f1xx_dma.c **** 		while (!(RCC->AHBENR & 0x01));
  26:drivers/bsp_f1xx_dma.c **** 	}
  27:drivers/bsp_f1xx_dma.c **** 
  28:drivers/bsp_f1xx_dma.c **** 	DMA_CHx->CPAR = cpar;      //DMA1 外设地址
  93              		.loc 1 28 0
  94 001c 8160     		str	r1, [r0, #8]
  29:drivers/bsp_f1xx_dma.c **** 	DMA_CHx->CMAR = (u32) cmar; //DMA1,存储器地址
  95              		.loc 1 29 0
  96 001e C260     		str	r2, [r0, #12]
  30:drivers/bsp_f1xx_dma.c **** 	DMA_CHx->CCR = 0X00000000; //复位
  97              		.loc 1 30 0
  98 0020 0022     		movs	r2, #0
  99              	.LVL5:
 100 0022 0260     		str	r2, [r0]
 101              	.LVL6:
  31:drivers/bsp_f1xx_dma.c **** 	DMA_CHx->CCR |= dir << 4;    //从存储器读
 102              		.loc 1 31 0
 103 0024 0268     		ldr	r2, [r0]
 104 0026 42EA0313 		orr	r3, r2, r3, lsl #4
 105              	.LVL7:
 106 002a 0360     		str	r3, [r0]
  32:drivers/bsp_f1xx_dma.c **** 	DMA_CHx->CCR |= 1 << 7;    //存储器增量模式
 107              		.loc 1 32 0
 108 002c 0368     		ldr	r3, [r0]
 109 002e 43F08003 		orr	r3, r3, #128
 110 0032 0360     		str	r3, [r0]
  33:drivers/bsp_f1xx_dma.c **** 	DMA_CHx->CCR |= 1 << 12;   //中等优先级
 111              		.loc 1 33 0
 112 0034 0368     		ldr	r3, [r0]
 113 0036 43F48053 		orr	r3, r3, #4096
 114 003a 0360     		str	r3, [r0]
  34:drivers/bsp_f1xx_dma.c **** }
 115              		.loc 1 34 0
 116 003c 30BC     		pop	{r4, r5}
 117              	.LCFI1:
 118              		.cfi_remember_state
 119              		.cfi_restore 5
 120              		.cfi_restore 4
 121              		.cfi_def_cfa_offset 0
 122 003e 7047     		bx	lr
 123              	.LVL8:
 124              	.L8:
 125              	.LCFI2:
 126              		.cfi_restore_state
  24:drivers/bsp_f1xx_dma.c **** 		while (!(RCC->AHBENR & 0x01));
 127              		.loc 1 24 0
 128 0040 064D     		ldr	r5, .L13+4
 129 0042 6C69     		ldr	r4, [r5, #20]
 130 0044 44F00104 		orr	r4, r4, #1
 131 0048 6C61     		str	r4, [r5, #20]
 132              	.L11:
  25:drivers/bsp_f1xx_dma.c **** 	}
 133              		.loc 1 25 0 discriminator 1
 134 004a 044C     		ldr	r4, .L13+4
 135 004c 6469     		ldr	r4, [r4, #20]
 136 004e 14F0010F 		tst	r4, #1
 137 0052 FAD0     		beq	.L11
ARM GAS  /var/folders/vc/p32jbmgs3k17njj5gy_2_k3w0000gn/T//cculYdhE.s 			page 4


 138 0054 E2E7     		b	.L10
 139              	.L14:
 140 0056 00BF     		.align	2
 141              	.L13:
 142 0058 07040240 		.word	1073873927
 143 005c 00100240 		.word	1073876992
 144              		.cfi_endproc
 145              	.LFE67:
 147              		.section	.text.dma_stream_en,"ax",%progbits
 148              		.align	1
 149              		.global	dma_stream_en
 150              		.syntax unified
 151              		.thumb
 152              		.thumb_func
 153              		.fpu softvfp
 155              	dma_stream_en:
 156              	.LFB68:
  35:drivers/bsp_f1xx_dma.c **** 
  36:drivers/bsp_f1xx_dma.c **** //开启一次DMA传输
  37:drivers/bsp_f1xx_dma.c **** void dma_stream_en(DMA_Channel_TypeDef *chx, u8 *buf, u16 len)
  38:drivers/bsp_f1xx_dma.c **** {
 157              		.loc 1 38 0
 158              		.cfi_startproc
 159              		@ args = 0, pretend = 0, frame = 0
 160              		@ frame_needed = 0, uses_anonymous_args = 0
 161              		@ link register save eliminated.
 162              	.LVL9:
  39:drivers/bsp_f1xx_dma.c **** 	chx->CCR &= ~(1 << 0);     //关闭DMA传输
 163              		.loc 1 39 0
 164 0000 0368     		ldr	r3, [r0]
 165 0002 23F00103 		bic	r3, r3, #1
 166 0006 0360     		str	r3, [r0]
  40:drivers/bsp_f1xx_dma.c **** 	chx->CMAR = (u32) &buf[0];
 167              		.loc 1 40 0
 168 0008 C160     		str	r1, [r0, #12]
  41:drivers/bsp_f1xx_dma.c **** 	chx->CNDTR = len;
 169              		.loc 1 41 0
 170 000a 4260     		str	r2, [r0, #4]
  42:drivers/bsp_f1xx_dma.c **** 	chx->CCR |= 1 << 0;           //开启DMA传输
 171              		.loc 1 42 0
 172 000c 0368     		ldr	r3, [r0]
 173 000e 43F00103 		orr	r3, r3, #1
 174 0012 0360     		str	r3, [r0]
  43:drivers/bsp_f1xx_dma.c **** }
 175              		.loc 1 43 0
 176 0014 7047     		bx	lr
 177              		.cfi_endproc
 178              	.LFE68:
 180              		.section	.text.dma_clear_flag,"ax",%progbits
 181              		.align	1
 182              		.global	dma_clear_flag
 183              		.syntax unified
 184              		.thumb
 185              		.thumb_func
 186              		.fpu softvfp
 188              	dma_clear_flag:
 189              	.LFB69:
ARM GAS  /var/folders/vc/p32jbmgs3k17njj5gy_2_k3w0000gn/T//cculYdhE.s 			page 5


  44:drivers/bsp_f1xx_dma.c **** 
  45:drivers/bsp_f1xx_dma.c **** void dma_clear_flag(DMA_Channel_TypeDef *chx)
  46:drivers/bsp_f1xx_dma.c **** {
 190              		.loc 1 46 0
 191              		.cfi_startproc
 192              		@ args = 0, pretend = 0, frame = 0
 193              		@ frame_needed = 0, uses_anonymous_args = 0
 194              	.LVL10:
 195 0000 10B5     		push	{r4, lr}
 196              	.LCFI3:
 197              		.cfi_def_cfa_offset 8
 198              		.cfi_offset 4, -8
 199              		.cfi_offset 14, -4
 200 0002 0446     		mov	r4, r0
  47:drivers/bsp_f1xx_dma.c **** 	DMA_TypeDef *dmax = getdmax(chx);
 201              		.loc 1 47 0
 202 0004 FFF7FEFF 		bl	getdmax
 203              	.LVL11:
  48:drivers/bsp_f1xx_dma.c **** 	if (dmax == DMA1)
 204              		.loc 1 48 0
 205 0008 0D4B     		ldr	r3, .L21
 206 000a 9842     		cmp	r0, r3
 207 000c 0BD0     		beq	.L20
  49:drivers/bsp_f1xx_dma.c **** 		dmax->IFCR = (u32) 0x0F << ((((u32) chx - DMA1_Channel1_BASE) / 0x14) << 2);
  50:drivers/bsp_f1xx_dma.c **** 	else
  51:drivers/bsp_f1xx_dma.c **** 		dmax->IFCR = (u32) 0x0F << ((((u32) chx - DMA2_Channel1_BASE) / 0x14) << 2);
 208              		.loc 1 51 0
 209 000e 0D4B     		ldr	r3, .L21+4
 210 0010 2344     		add	r3, r3, r4
 211 0012 0D4A     		ldr	r2, .L21+8
 212 0014 A2FB0323 		umull	r2, r3, r2, r3
 213 0018 1B09     		lsrs	r3, r3, #4
 214 001a 9B00     		lsls	r3, r3, #2
 215 001c 0F22     		movs	r2, #15
 216 001e 02FA03F3 		lsl	r3, r2, r3
 217 0022 4360     		str	r3, [r0, #4]
 218              	.L16:
  52:drivers/bsp_f1xx_dma.c **** }
 219              		.loc 1 52 0
 220 0024 10BD     		pop	{r4, pc}
 221              	.LVL12:
 222              	.L20:
  49:drivers/bsp_f1xx_dma.c **** 		dmax->IFCR = (u32) 0x0F << ((((u32) chx - DMA1_Channel1_BASE) / 0x14) << 2);
 223              		.loc 1 49 0
 224 0026 094B     		ldr	r3, .L21+12
 225 0028 2344     		add	r3, r3, r4
 226 002a 074A     		ldr	r2, .L21+8
 227 002c A2FB0323 		umull	r2, r3, r2, r3
 228 0030 1B09     		lsrs	r3, r3, #4
 229 0032 9B00     		lsls	r3, r3, #2
 230 0034 0F22     		movs	r2, #15
 231 0036 02FA03F3 		lsl	r3, r2, r3
 232 003a 4360     		str	r3, [r0, #4]
 233 003c F2E7     		b	.L16
 234              	.L22:
 235 003e 00BF     		.align	2
 236              	.L21:
ARM GAS  /var/folders/vc/p32jbmgs3k17njj5gy_2_k3w0000gn/T//cculYdhE.s 			page 6


 237 0040 00000240 		.word	1073872896
 238 0044 F8FBFDBF 		.word	-1073873928
 239 0048 CDCCCCCC 		.word	-858993459
 240 004c F8FFFDBF 		.word	-1073872904
 241              		.cfi_endproc
 242              	.LFE69:
 244              		.text
 245              	.Letext0:
 246              		.file 2 "/Users/zy/Desktop/Tools/gcc-arm-none-eabi-9-2019-q4-major/arm-none-eabi/include/machine/_
 247              		.file 3 "/Users/zy/Desktop/Tools/gcc-arm-none-eabi-9-2019-q4-major/arm-none-eabi/include/sys/_stdi
 248              		.file 4 "Inc/stm32f103xe.h"
 249              		.file 5 "/Users/zy/Desktop/Tools/gcc-arm-none-eabi-9-2019-q4-major/arm-none-eabi/include/sys/lock.
 250              		.file 6 "/Users/zy/Desktop/Tools/gcc-arm-none-eabi-9-2019-q4-major/arm-none-eabi/include/sys/_type
 251              		.file 7 "/Users/zy/Desktop/Tools/gcc-arm-none-eabi-7-2017-q4-major/lib/gcc/arm-none-eabi/7.2.1/inc
 252              		.file 8 "/Users/zy/Desktop/Tools/gcc-arm-none-eabi-9-2019-q4-major/arm-none-eabi/include/sys/reent
 253              		.file 9 "Inc/core_cm3.h"
 254              		.file 10 "startup/inc/sys.h"
 255              		.file 11 "tools/inc/malloc.h"
 256              		.file 12 "tools/inc/tskmanager.h"
ARM GAS  /var/folders/vc/p32jbmgs3k17njj5gy_2_k3w0000gn/T//cculYdhE.s 			page 7

