ARM GAS  /var/folders/vc/p32jbmgs3k17njj5gy_2_k3w0000gn/T//ccQYN0BN.s 			page 1


   1              		.cpu cortex-m3
   2              		.eabi_attribute 20, 1
   3              		.eabi_attribute 21, 1
   4              		.eabi_attribute 23, 3
   5              		.eabi_attribute 24, 1
   6              		.eabi_attribute 25, 1
   7              		.eabi_attribute 26, 1
   8              		.eabi_attribute 30, 1
   9              		.eabi_attribute 34, 1
  10              		.eabi_attribute 18, 4
  11              		.file	"datautil.c"
  12              		.text
  13              	.Ltext0:
  14              		.cfi_sections	.debug_frame
  15              		.section	.text.CreateDataUtil,"ax",%progbits
  16              		.align	1
  17              		.global	CreateDataUtil
  18              		.syntax unified
  19              		.thumb
  20              		.thumb_func
  21              		.fpu softvfp
  23              	CreateDataUtil:
  24              	.LFB66:
  25              		.file 1 "drivers/datautil.c"
   1:drivers/datautil.c **** #include "datautil.h"
   2:drivers/datautil.c **** #include "bsp_f1xx_uart.h"
   3:drivers/datautil.c **** 
   4:drivers/datautil.c **** _DataUtil *CreateDataUtil(_DataUtilType type, void *args)
   5:drivers/datautil.c **** {
  26              		.loc 1 5 0
  27              		.cfi_startproc
  28              		@ args = 0, pretend = 0, frame = 0
  29              		@ frame_needed = 0, uses_anonymous_args = 0
  30              	.LVL0:
   6:drivers/datautil.c **** 	_DataUtil *util = 0;
   7:drivers/datautil.c **** 	switch (type) {
  31              		.loc 1 7 0
  32 0000 20B9     		cbnz	r0, .L5
   5:drivers/datautil.c **** 	_DataUtil *util = 0;
  33              		.loc 1 5 0
  34 0002 08B5     		push	{r3, lr}
  35              	.LCFI0:
  36              		.cfi_def_cfa_offset 8
  37              		.cfi_offset 3, -8
  38              		.cfi_offset 14, -4
  39 0004 0846     		mov	r0, r1
  40              	.LVL1:
   8:drivers/datautil.c **** 		case DATAUTIL_UART:
   9:drivers/datautil.c **** 			util = bsp_UartInit((_uartpara *) args);
  41              		.loc 1 9 0
  42 0006 FFF7FEFF 		bl	bsp_UartInit
  43              	.LVL2:
  10:drivers/datautil.c **** 			break;
  11:drivers/datautil.c **** 
  12:drivers/datautil.c **** 		case DATAUTIL_SPI:
  13:drivers/datautil.c **** 			break;
  14:drivers/datautil.c **** 
ARM GAS  /var/folders/vc/p32jbmgs3k17njj5gy_2_k3w0000gn/T//ccQYN0BN.s 			page 2


  15:drivers/datautil.c **** 		case DATAUTIL_SOFTI2C:
  16:drivers/datautil.c **** 			break;
  17:drivers/datautil.c **** 		case DATAUTIL_SOFTSPI:
  18:drivers/datautil.c **** 			break;
  19:drivers/datautil.c **** 	}
  20:drivers/datautil.c **** 
  21:drivers/datautil.c **** 	return util;
  22:drivers/datautil.c **** }
  44              		.loc 1 22 0
  45 000a 08BD     		pop	{r3, pc}
  46              	.LVL3:
  47              	.L5:
  48              	.LCFI1:
  49              		.cfi_def_cfa_offset 0
  50              		.cfi_restore 3
  51              		.cfi_restore 14
   6:drivers/datautil.c **** 	switch (type) {
  52              		.loc 1 6 0
  53 000c 0020     		movs	r0, #0
  54              	.LVL4:
  55              		.loc 1 22 0
  56 000e 7047     		bx	lr
  57              		.cfi_endproc
  58              	.LFE66:
  60              		.section	.text.CloseDataUtil,"ax",%progbits
  61              		.align	1
  62              		.global	CloseDataUtil
  63              		.syntax unified
  64              		.thumb
  65              		.thumb_func
  66              		.fpu softvfp
  68              	CloseDataUtil:
  69              	.LFB67:
  23:drivers/datautil.c **** 
  24:drivers/datautil.c **** 
  25:drivers/datautil.c **** void CloseDataUtil(_DataUtilType type, _DataUtil *util)
  26:drivers/datautil.c **** {
  70              		.loc 1 26 0
  71              		.cfi_startproc
  72              		@ args = 0, pretend = 0, frame = 0
  73              		@ frame_needed = 0, uses_anonymous_args = 0
  74              	.LVL5:
  27:drivers/datautil.c **** 	switch (type) {
  75              		.loc 1 27 0
  76 0000 00B1     		cbz	r0, .L17
  77 0002 7047     		bx	lr
  78              	.L17:
  26:drivers/datautil.c **** 	switch (type) {
  79              		.loc 1 26 0
  80 0004 10B5     		push	{r4, lr}
  81              	.LCFI2:
  82              		.cfi_def_cfa_offset 8
  83              		.cfi_offset 4, -8
  84              		.cfi_offset 14, -4
  85 0006 0C46     		mov	r4, r1
  28:drivers/datautil.c **** 		case DATAUTIL_UART:
  29:drivers/datautil.c **** 			bsp_UartClose(util);
ARM GAS  /var/folders/vc/p32jbmgs3k17njj5gy_2_k3w0000gn/T//ccQYN0BN.s 			page 3


  86              		.loc 1 29 0
  87 0008 0846     		mov	r0, r1
  88              	.LVL6:
  89 000a FFF7FEFF 		bl	bsp_UartClose
  90              	.LVL7:
  30:drivers/datautil.c **** 			myfree(util);
  91              		.loc 1 30 0
  92 000e 2046     		mov	r0, r4
  93 0010 FFF7FEFF 		bl	myfree
  94              	.LVL8:
  31:drivers/datautil.c **** 			break;
  32:drivers/datautil.c **** 
  33:drivers/datautil.c **** 		case DATAUTIL_SPI:
  34:drivers/datautil.c **** 			break;
  35:drivers/datautil.c **** 		case DATAUTIL_SOFTI2C:
  36:drivers/datautil.c **** 			break;
  37:drivers/datautil.c **** 		case DATAUTIL_SOFTSPI:
  38:drivers/datautil.c **** 			break;
  39:drivers/datautil.c **** 	}
  40:drivers/datautil.c **** }
  95              		.loc 1 40 0
  96 0014 10BD     		pop	{r4, pc}
  97              		.cfi_endproc
  98              	.LFE67:
 100              		.text
 101              	.Letext0:
 102              		.file 2 "/Users/zy/Desktop/Tools/gcc-arm-none-eabi-9-2019-q4-major/arm-none-eabi/include/machine/_
 103              		.file 3 "/Users/zy/Desktop/Tools/gcc-arm-none-eabi-9-2019-q4-major/arm-none-eabi/include/sys/_stdi
 104              		.file 4 "/Users/zy/Desktop/Tools/gcc-arm-none-eabi-9-2019-q4-major/arm-none-eabi/include/sys/lock.
 105              		.file 5 "/Users/zy/Desktop/Tools/gcc-arm-none-eabi-9-2019-q4-major/arm-none-eabi/include/sys/_type
 106              		.file 6 "/Users/zy/Desktop/Tools/gcc-arm-none-eabi-7-2017-q4-major/lib/gcc/arm-none-eabi/7.2.1/inc
 107              		.file 7 "/Users/zy/Desktop/Tools/gcc-arm-none-eabi-9-2019-q4-major/arm-none-eabi/include/sys/reent
 108              		.file 8 "Inc/core_cm3.h"
 109              		.file 9 "startup/inc/sys.h"
 110              		.file 10 "tools/inc/malloc.h"
 111              		.file 11 "tools/inc/tskmanager.h"
 112              		.file 12 "drivers/inc/datautil.h"
 113              		.file 13 "drivers/inc/bsp_f1xx_uart.h"
ARM GAS  /var/folders/vc/p32jbmgs3k17njj5gy_2_k3w0000gn/T//ccQYN0BN.s 			page 4

