ARM GAS  /var/folders/vc/p32jbmgs3k17njj5gy_2_k3w0000gn/T//ccvskTFd.s 			page 1


   1              		.cpu cortex-m3
   2              		.eabi_attribute 20, 1
   3              		.eabi_attribute 21, 1
   4              		.eabi_attribute 23, 3
   5              		.eabi_attribute 24, 1
   6              		.eabi_attribute 25, 1
   7              		.eabi_attribute 26, 1
   8              		.eabi_attribute 30, 1
   9              		.eabi_attribute 34, 1
  10              		.eabi_attribute 18, 4
  11              		.file	"runled.c"
  12              		.text
  13              	.Ltext0:
  14              		.cfi_sections	.debug_frame
  15              		.section	.text.runledfunc,"ax",%progbits
  16              		.align	1
  17              		.global	runledfunc
  18              		.syntax unified
  19              		.thumb
  20              		.thumb_func
  21              		.fpu softvfp
  23              	runledfunc:
  24              	.LFB66:
  25              		.file 1 "app/runled.c"
   1:app/runled.c  **** #include "runled.h"
   2:app/runled.c  **** #include "tskmanager.h"
   3:app/runled.c  **** #include "bsp_f1xx_led.h"
   4:app/runled.c  **** 
   5:app/runled.c  **** 
   6:app/runled.c  **** void runledfunc(void *args);
   7:app/runled.c  **** 
   8:app/runled.c  **** _led runled = {
   9:app/runled.c  **** 		.io = {PB, 12, IO_MODE_OUT_PP_50MHZ,},
  10:app/runled.c  **** 		.lightlevel = 0,
  11:app/runled.c  **** };
  12:app/runled.c  **** 
  13:app/runled.c  **** _Task runledtsk = {
  14:app/runled.c  **** 		.ms = 100,
  15:app/runled.c  **** 		.func = runledfunc,
  16:app/runled.c  **** };
  17:app/runled.c  **** 
  18:app/runled.c  **** void runledfunc(void *args)
  19:app/runled.c  **** {
  26              		.loc 1 19 0
  27              		.cfi_startproc
  28              		@ args = 0, pretend = 0, frame = 0
  29              		@ frame_needed = 0, uses_anonymous_args = 0
  30              	.LVL0:
  31 0000 08B5     		push	{r3, lr}
  32              	.LCFI0:
  33              		.cfi_def_cfa_offset 8
  34              		.cfi_offset 3, -8
  35              		.cfi_offset 14, -4
  20:app/runled.c  **** 	ledfilp(&runled);
  36              		.loc 1 20 0
  37 0002 0248     		ldr	r0, .L3
  38              	.LVL1:
ARM GAS  /var/folders/vc/p32jbmgs3k17njj5gy_2_k3w0000gn/T//ccvskTFd.s 			page 2


  39 0004 FFF7FEFF 		bl	ledfilp
  40              	.LVL2:
  21:app/runled.c  **** }
  41              		.loc 1 21 0
  42 0008 08BD     		pop	{r3, pc}
  43              	.L4:
  44 000a 00BF     		.align	2
  45              	.L3:
  46 000c 00000000 		.word	.LANCHOR0
  47              		.cfi_endproc
  48              	.LFE66:
  50              		.section	.text.runledinit,"ax",%progbits
  51              		.align	1
  52              		.global	runledinit
  53              		.syntax unified
  54              		.thumb
  55              		.thumb_func
  56              		.fpu softvfp
  58              	runledinit:
  59              	.LFB67:
  22:app/runled.c  **** 
  23:app/runled.c  **** void runledinit(void)
  24:app/runled.c  **** {
  60              		.loc 1 24 0
  61              		.cfi_startproc
  62              		@ args = 0, pretend = 0, frame = 0
  63              		@ frame_needed = 0, uses_anonymous_args = 0
  64 0000 08B5     		push	{r3, lr}
  65              	.LCFI1:
  66              		.cfi_def_cfa_offset 8
  67              		.cfi_offset 3, -8
  68              		.cfi_offset 14, -4
  25:app/runled.c  **** 	ledinit(&runled);
  69              		.loc 1 25 0
  70 0002 0348     		ldr	r0, .L7
  71 0004 FFF7FEFF 		bl	ledinit
  72              	.LVL3:
  26:app/runled.c  **** 	CreateTask(&runledtsk);
  73              		.loc 1 26 0
  74 0008 0248     		ldr	r0, .L7+4
  75 000a FFF7FEFF 		bl	CreateTask
  76              	.LVL4:
  27:app/runled.c  **** }
  77              		.loc 1 27 0
  78 000e 08BD     		pop	{r3, pc}
  79              	.L8:
  80              		.align	2
  81              	.L7:
  82 0010 00000000 		.word	.LANCHOR0
  83 0014 00000000 		.word	.LANCHOR1
  84              		.cfi_endproc
  85              	.LFE67:
  87              		.section	.text.SetRunledTime,"ax",%progbits
  88              		.align	1
  89              		.global	SetRunledTime
  90              		.syntax unified
  91              		.thumb
ARM GAS  /var/folders/vc/p32jbmgs3k17njj5gy_2_k3w0000gn/T//ccvskTFd.s 			page 3


  92              		.thumb_func
  93              		.fpu softvfp
  95              	SetRunledTime:
  96              	.LFB68:
  28:app/runled.c  **** 
  29:app/runled.c  **** void SetRunledTime(u32 ms)
  30:app/runled.c  **** {
  97              		.loc 1 30 0
  98              		.cfi_startproc
  99              		@ args = 0, pretend = 0, frame = 0
 100              		@ frame_needed = 0, uses_anonymous_args = 0
 101              	.LVL5:
 102 0000 00B5     		push	{lr}
 103              	.LCFI2:
 104              		.cfi_def_cfa_offset 4
 105              		.cfi_offset 14, -4
 106 0002 89B0     		sub	sp, sp, #36
 107              	.LCFI3:
 108              		.cfi_def_cfa_offset 40
  31:app/runled.c  **** 	SetTaskPeriod(0,0,0,0,ms,&runledtsk);
 109              		.loc 1 31 0
 110 0004 084B     		ldr	r3, .L11
 111 0006 0693     		str	r3, [sp, #24]
 112 0008 0490     		str	r0, [sp, #16]
 113 000a 0023     		movs	r3, #0
 114 000c 0593     		str	r3, [sp, #20]
 115 000e 0020     		movs	r0, #0
 116              	.LVL6:
 117 0010 0021     		movs	r1, #0
 118 0012 CDE90201 		strd	r0, [sp, #8]
 119 0016 CDE90001 		strd	r0, [sp]
 120 001a 0246     		mov	r2, r0
 121 001c 0B46     		mov	r3, r1
 122 001e FFF7FEFF 		bl	SetTaskPeriod
 123              	.LVL7:
  32:app/runled.c  **** }
 124              		.loc 1 32 0
 125 0022 09B0     		add	sp, sp, #36
 126              	.LCFI4:
 127              		.cfi_def_cfa_offset 4
 128              		@ sp needed
 129 0024 5DF804FB 		ldr	pc, [sp], #4
 130              	.L12:
 131              		.align	2
 132              	.L11:
 133 0028 00000000 		.word	.LANCHOR1
 134              		.cfi_endproc
 135              	.LFE68:
 137              		.global	runledtsk
 138              		.global	runled
 139              		.section	.data.runled,"aw",%progbits
 140              		.align	2
 141              		.set	.LANCHOR0,. + 0
 144              	runled:
 145 0000 000C0140 		.word	1073810432
 146 0004 0C       		.byte	12
 147 0005 03       		.byte	3
ARM GAS  /var/folders/vc/p32jbmgs3k17njj5gy_2_k3w0000gn/T//ccvskTFd.s 			page 4


 148 0006 0000     		.space	2
 149 0008 00       		.byte	0
 150 0009 000000   		.space	3
 151              		.section	.data.runledtsk,"aw",%progbits
 152              		.align	3
 153              		.set	.LANCHOR1,. + 0
 156              	runledtsk:
 157 0000 00000000 		.space	48
 157      00000000 
 157      00000000 
 157      00000000 
 157      00000000 
 158 0030 64000000 		.word	100
 159 0034 00000000 		.word	0
 160 0038 00000000 		.space	4
 161 003c 00000000 		.word	runledfunc
 162 0040 00000000 		.space	8
 162      00000000 
 163              		.text
 164              	.Letext0:
 165              		.file 2 "/Users/zy/Desktop/Tools/gcc-arm-none-eabi-9-2019-q4-major/arm-none-eabi/include/machine/_
 166              		.file 3 "/Users/zy/Desktop/Tools/gcc-arm-none-eabi-9-2019-q4-major/arm-none-eabi/include/sys/_stdi
 167              		.file 4 "/Users/zy/Desktop/Tools/gcc-arm-none-eabi-9-2019-q4-major/arm-none-eabi/include/sys/lock.
 168              		.file 5 "/Users/zy/Desktop/Tools/gcc-arm-none-eabi-9-2019-q4-major/arm-none-eabi/include/sys/_type
 169              		.file 6 "/Users/zy/Desktop/Tools/gcc-arm-none-eabi-7-2017-q4-major/lib/gcc/arm-none-eabi/7.2.1/inc
 170              		.file 7 "/Users/zy/Desktop/Tools/gcc-arm-none-eabi-9-2019-q4-major/arm-none-eabi/include/sys/reent
 171              		.file 8 "Inc/core_cm3.h"
 172              		.file 9 "startup/inc/sys.h"
 173              		.file 10 "tools/inc/malloc.h"
 174              		.file 11 "tools/inc/tskmanager.h"
 175              		.file 12 "drivers/inc/bsp_f1xx_io.h"
 176              		.file 13 "drivers/inc/bsp_f1xx_led.h"
ARM GAS  /var/folders/vc/p32jbmgs3k17njj5gy_2_k3w0000gn/T//ccvskTFd.s 			page 5

